; ModuleID = '12/1148.c'
source_filename = "12/1148.c"
target datalayout = "e-m:e-p270:32:32-p271:32:32-p272:64:64-i64:64-f80:128-n8:16:32:64-S128"
target triple = "x86_64-pc-linux-gnu"

@.str = private unnamed_addr constant [3 x i8] c"%d\00", align 1
@.str.1 = private unnamed_addr constant [4 x i8] c"%d\0A\00", align 1

; Function Attrs: noinline nounwind uwtable
define dso_local void @main() #0 {
  %1 = alloca [20 x i32], align 16
  %2 = alloca i32, align 4
  %3 = alloca i32, align 4
  %4 = alloca i32, align 4
  %5 = alloca i32, align 4
  %6 = alloca i32, align 4
  store i32 0, i32* %3, align 4
  store i32 0, i32* %6, align 4
  %7 = getelementptr inbounds [20 x i32], [20 x i32]* %1, i64 0, i64 0
  %8 = bitcast i32* %7 to i8*
  call void @llvm.memset.p0i8.i64(i8* align 16 %8, i8 0, i64 80, i1 false)
  br label %9

9:                                                ; preds = %84, %76, %17, %0
  %10 = call i32 (i8*, ...) @__isoc99_scanf(i8* getelementptr inbounds ([3 x i8], [3 x i8]* @.str, i64 0, i64 0), i32* %2)
  %11 = load i32, i32* %2, align 4
  %12 = icmp eq i32 %11, -1
  br i1 %12, label %13, label %14

13:                                               ; preds = %9
  br label %85

14:                                               ; preds = %9
  %15 = load i32, i32* %2, align 4
  %16 = icmp ne i32 %15, 0
  br i1 %16, label %17, label %24

17:                                               ; preds = %14
  %18 = load i32, i32* %2, align 4
  %19 = load i32, i32* %3, align 4
  %20 = sext i32 %19 to i64
  %21 = getelementptr inbounds [20 x i32], [20 x i32]* %1, i64 0, i64 %20
  store i32 %18, i32* %21, align 4
  %22 = load i32, i32* %3, align 4
  %23 = add nsw i32 %22, 1
  store i32 %23, i32* %3, align 4
  br label %9

24:                                               ; preds = %14
  %25 = load i32, i32* %2, align 4
  %26 = icmp eq i32 %25, 0
  br i1 %26, label %27, label %82

27:                                               ; preds = %24
  store i32 0, i32* %4, align 4
  br label %28

28:                                               ; preds = %73, %27
  %29 = load i32, i32* %4, align 4
  %30 = load i32, i32* %3, align 4
  %31 = sub nsw i32 %30, 1
  %32 = icmp slt i32 %29, %31
  br i1 %32, label %33, label %76

33:                                               ; preds = %28
  %34 = load i32, i32* %4, align 4
  %35 = add nsw i32 %34, 1
  store i32 %35, i32* %5, align 4
  br label %36

36:                                               ; preds = %66, %33
  %37 = load i32, i32* %5, align 4
  %38 = load i32, i32* %3, align 4
  %39 = icmp slt i32 %37, %38
  br i1 %39, label %40, label %69

40:                                               ; preds = %36
  %41 = load i32, i32* %4, align 4
  %42 = sext i32 %41 to i64
  %43 = getelementptr inbounds [20 x i32], [20 x i32]* %1, i64 0, i64 %42
  %44 = load i32, i32* %43, align 4
  %45 = load i32, i32* %5, align 4
  %46 = sext i32 %45 to i64
  %47 = getelementptr inbounds [20 x i32], [20 x i32]* %1, i64 0, i64 %46
  %48 = load i32, i32* %47, align 4
  %49 = mul nsw i32 2, %48
  %50 = icmp eq i32 %44, %49
  br i1 %50, label %62, label %51

51:                                               ; preds = %40
  %52 = load i32, i32* %5, align 4
  %53 = sext i32 %52 to i64
  %54 = getelementptr inbounds [20 x i32], [20 x i32]* %1, i64 0, i64 %53
  %55 = load i32, i32* %54, align 4
  %56 = load i32, i32* %4, align 4
  %57 = sext i32 %56 to i64
  %58 = getelementptr inbounds [20 x i32], [20 x i32]* %1, i64 0, i64 %57
  %59 = load i32, i32* %58, align 4
  %60 = mul nsw i32 2, %59
  %61 = icmp eq i32 %55, %60
  br i1 %61, label %62, label %65

62:                                               ; preds = %51, %40
  %63 = load i32, i32* %6, align 4
  %64 = add nsw i32 %63, 1
  store i32 %64, i32* %6, align 4
  br label %65

65:                                               ; preds = %62, %51
  br label %66

66:                                               ; preds = %65
  %67 = load i32, i32* %5, align 4
  %68 = add nsw i32 %67, 1
  store i32 %68, i32* %5, align 4
  br label %36

69:                                               ; preds = %36
  %70 = load i32, i32* %4, align 4
  %71 = sext i32 %70 to i64
  %72 = getelementptr inbounds [20 x i32], [20 x i32]* %1, i64 0, i64 %71
  store i32 0, i32* %72, align 4
  br label %73

73:                                               ; preds = %69
  %74 = load i32, i32* %4, align 4
  %75 = add nsw i32 %74, 1
  store i32 %75, i32* %4, align 4
  br label %28

76:                                               ; preds = %28
  %77 = load i32, i32* %4, align 4
  %78 = sext i32 %77 to i64
  %79 = getelementptr inbounds [20 x i32], [20 x i32]* %1, i64 0, i64 %78
  store i32 0, i32* %79, align 4
  %80 = load i32, i32* %6, align 4
  %81 = call i32 (i8*, ...) @printf(i8* getelementptr inbounds ([4 x i8], [4 x i8]* @.str.1, i64 0, i64 0), i32 %80)
  store i32 0, i32* %6, align 4
  store i32 0, i32* %3, align 4
  store i32 0, i32* %4, align 4
  store i32 0, i32* %5, align 4
  br label %9

82:                                               ; preds = %24
  br label %83

83:                                               ; preds = %82
  br label %84

84:                                               ; preds = %83
  br label %9

85:                                               ; preds = %13
  ret void
}

; Function Attrs: argmemonly nounwind willreturn
declare void @llvm.memset.p0i8.i64(i8* nocapture writeonly, i8, i64, i1 immarg) #1

declare dso_local i32 @__isoc99_scanf(i8*, ...) #2

declare dso_local i32 @printf(i8*, ...) #2


!llvm.module.flags = !{!0}
!llvm.ident = !{!1}

!0 = !{i32 1, !"wchar_size", i32 4}
!1 = !{!"clang version 10.0.0-4ubuntu1 "}
